target datalayout = "e-m:e-p270:32:32-p271:32:32-p272:64:64-i64:64-i128:128-f80:128-n8:16:32:64-S128"
target triple = "x86_64-pc-linux-gnu"

; Function Attrs: nounwind uwtable
define internal zeroext i1 @char_is_lower_alphanum_(i8 noundef signext %0) #0 {
  %2 = alloca i1, align 1
  %3 = alloca i8, align 1
  store i8 %0, ptr %3, align 1
  %4 = load i8, ptr %3, align 1
  %5 = sext i8 %4 to i32
  switch i32 %5, label %7 [
    i32 97, label %6
    i32 98, label %6
    i32 99, label %6
    i32 100, label %6
    i32 101, label %6
    i32 102, label %6
    i32 103, label %6
    i32 104, label %6
    i32 105, label %6
    i32 106, label %6
    i32 107, label %6
    i32 108, label %6
    i32 109, label %6
    i32 110, label %6
    i32 111, label %6
    i32 112, label %6
    i32 113, label %6
    i32 114, label %6
    i32 115, label %6
    i32 116, label %6
    i32 117, label %6
    i32 118, label %6
    i32 119, label %6
    i32 120, label %6
    i32 121, label %6
    i32 122, label %6
    i32 48, label %6
    i32 49, label %6
    i32 50, label %6
    i32 51, label %6
    i32 52, label %6
    i32 53, label %6
    i32 54, label %6
    i32 55, label %6
    i32 56, label %6
    i32 57, label %6
    i32 95, label %6
  ]

6:                                                ; preds = %1, %1, %1, %1, %1, %1, %1, %1, %1, %1, %1, %1, %1, %1, %1, %1, %1, %1, %1, %1, %1, %1, %1, %1, %1, %1, %1, %1, %1, %1, %1, %1, %1, %1, %1, %1, %1
  store i1 true, ptr %2, align 1
  br label %8

7:                                                ; preds = %1
  store i1 false, ptr %2, align 1
  br label %8

8:                                                ; preds = %7, %6
  %9 = load i1, ptr %2, align 1
  ret i1 %9
}

; Function Attrs: nounwind uwtable
define internal zeroext i1 @char_is_lower(i8 noundef signext %0) #0 {
  %2 = alloca i8, align 1
  store i8 %0, ptr %2, align 1
  %3 = load i8, ptr %2, align 1
  %4 = sext i8 %3 to i32
  %5 = icmp sge i32 %4, 97
  br i1 %5, label %6, label %10

6:                                                ; preds = %1
  %7 = load i8, ptr %2, align 1
  %8 = sext i8 %7 to i32
  %9 = icmp sle i32 %8, 122
  br label %10

10:                                               ; preds = %6, %1
  %11 = phi i1 [ false, %1 ], [ %9, %6 ]
  ret i1 %11
}

; Function Attrs: nounwind uwtable
define dso_local zeroext i1 @str_is_valid_lowercase_name(ptr noundef %0) #0 {
  %2 = alloca i1, align 1
  %3 = alloca ptr, align 8
  %4 = alloca i8, align 1
  %5 = alloca i32, align 4
  store ptr %0, ptr %3, align 8
  %6 = load ptr, ptr %3, align 8
  %7 = getelementptr inbounds i8, ptr %6, i64 0
  %8 = load i8, ptr %7, align 1
  %9 = call zeroext i1 @char_is_lower(i8 noundef signext %8)
  br i1 %9, label %11, label %10

10:                                               ; preds = %1
  store i1 false, ptr %2, align 1
  br label %29

11:                                               ; preds = %1
  store i32 0, ptr %5, align 4
  br label %12

12:                                               ; preds = %27, %11
  %13 = load ptr, ptr %3, align 8
  %14 = getelementptr inbounds i8, ptr %13, i32 1
  store ptr %14, ptr %3, align 8
  %15 = load i8, ptr %13, align 1
  store i8 %15, ptr %4, align 1
  %16 = sext i8 %15 to i32
  %17 = icmp ne i32 %16, 0
  br i1 %17, label %18, label %28

18:                                               ; preds = %12
  %19 = load i8, ptr %4, align 1
  %20 = call zeroext i1 @char_is_lower_alphanum_(i8 noundef signext %19)
  br i1 %20, label %22, label %21

21:                                               ; preds = %18
  store i1 false, ptr %2, align 1
  br label %29

22:                                               ; preds = %18
  %23 = load i32, ptr %5, align 4
  %24 = add nsw i32 %23, 1
  store i32 %24, ptr %5, align 4
  %25 = icmp sgt i32 %24, 127
  br i1 %25, label %26, label %27

26:                                               ; preds = %22
  store i1 false, ptr %2, align 1
  br label %29

27:                                               ; preds = %22
  br label %12, !llvm.loop !10

28:                                               ; preds = %12
  store i1 true, ptr %2, align 1
  br label %29

29:                                               ; preds = %28, %26, %21, %10
  %30 = load i1, ptr %2, align 1
  ret i1 %30
}