; Function Attrs: nofree norecurse nosync nounwind memory(read, inaccessiblemem: none) uwtable
define dso_local noundef zeroext i1 @str_is_valid_lowercase_name(ptr nocapture noundef readonly %0) local_unnamed_addr #2 {
  %2 = load i8, ptr %0, align 1
  %3 = add i8 %2, -97
  %4 = icmp ult i8 %3, 26
  br i1 %4, label %.preheader, label %char_is_lower_alphanum_.exit.thread

thread-pre-split:                                 ; preds = %char_is_lower_alphanum_.exit
  %5 = add nuw nsw i32 %.0, 1
  %.pr = load i8, ptr %7, align 1
  br label %.preheader

.preheader:                                       ; preds = %1, %thread-pre-split
  %6 = phi i8 [ %.pr, %thread-pre-split ], [ %2, %1 ]
  %.05 = phi ptr [ %7, %thread-pre-split ], [ %0, %1 ]
  %.0 = phi i32 [ %5, %thread-pre-split ], [ 0, %1 ]
  %7 = getelementptr inbounds i8, ptr %.05, i64 1
  switch i8 %6, label %char_is_lower_alphanum_.exit.thread [
    i8 0, label %char_is_lower_alphanum_.exit.thread.loopexit
    i8 97, label %char_is_lower_alphanum_.exit
    i8 98, label %char_is_lower_alphanum_.exit
    i8 99, label %char_is_lower_alphanum_.exit
    i8 100, label %char_is_lower_alphanum_.exit
    i8 101, label %char_is_lower_alphanum_.exit
    i8 102, label %char_is_lower_alphanum_.exit
    i8 103, label %char_is_lower_alphanum_.exit
    i8 104, label %char_is_lower_alphanum_.exit
    i8 105, label %char_is_lower_alphanum_.exit
    i8 106, label %char_is_lower_alphanum_.exit
    i8 107, label %char_is_lower_alphanum_.exit
    i8 108, label %char_is_lower_alphanum_.exit
    i8 109, label %char_is_lower_alphanum_.exit
    i8 110, label %char_is_lower_alphanum_.exit
    i8 111, label %char_is_lower_alphanum_.exit
    i8 112, label %char_is_lower_alphanum_.exit
    i8 113, label %char_is_lower_alphanum_.exit
    i8 114, label %char_is_lower_alphanum_.exit
    i8 115, label %char_is_lower_alphanum_.exit
    i8 116, label %char_is_lower_alphanum_.exit
    i8 117, label %char_is_lower_alphanum_.exit
    i8 118, label %char_is_lower_alphanum_.exit
    i8 119, label %char_is_lower_alphanum_.exit
    i8 120, label %char_is_lower_alphanum_.exit
    i8 121, label %char_is_lower_alphanum_.exit
    i8 122, label %char_is_lower_alphanum_.exit
    i8 48, label %char_is_lower_alphanum_.exit
    i8 49, label %char_is_lower_alphanum_.exit
    i8 50, label %char_is_lower_alphanum_.exit
    i8 51, label %char_is_lower_alphanum_.exit
    i8 52, label %char_is_lower_alphanum_.exit
    i8 53, label %char_is_lower_alphanum_.exit
    i8 54, label %char_is_lower_alphanum_.exit
    i8 55, label %char_is_lower_alphanum_.exit
    i8 56, label %char_is_lower_alphanum_.exit
    i8 57, label %char_is_lower_alphanum_.exit
    i8 95, label %char_is_lower_alphanum_.exit
  ]

char_is_lower_alphanum_.exit:                     ; preds = %.preheader, %.preheader, %.preheader, %.preheader, %.preheader, %.preheader, %.preheader, %.preheader, %.preheader, %.preheader, %.preheader, %.preheader, %.preheader, %.preheader, %.preheader, %.preheader, %.preheader, %.preheader, %.preheader, %.preheader, %.preheader, %.preheader, %.preheader, %.preheader, %.preheader, %.preheader, %.preheader, %.preheader, %.preheader, %.preheader, %.preheader, %.preheader, %.preheader, %.preheader, %.preheader, %.preheader, %.preheader
  %exitcond = icmp eq i32 %.0, 127
  br i1 %exitcond, label %char_is_lower_alphanum_.exit.thread, label %thread-pre-split, !llvm.loop !10

char_is_lower_alphanum_.exit.thread.loopexit:     ; preds = %.preheader
  br label %char_is_lower_alphanum_.exit.thread

char_is_lower_alphanum_.exit.thread:              ; preds = %char_is_lower_alphanum_.exit, %.preheader, %char_is_lower_alphanum_.exit.thread.loopexit, %1
  %.04 = phi i1 [ false, %1 ], [ true, %char_is_lower_alphanum_.exit.thread.loopexit ], [ false, %.preheader ], [ false, %char_is_lower_alphanum_.exit ]
  ret i1 %.04
}